target datalayout = "e-m:e-p270:32:32-p271:32:32-p272:64:64-i64:64-i128:128-f80:128-n8:16:32:64-S128"
target triple = "x86_64-pc-linux-gnu"

%struct.crypto_ex_data_st = type { ptr }
%struct.ssl_cipher_preference_list_st = type { ptr, ptr }
%struct.ssl_st = type { i32, i16, i16, ptr, ptr, ptr, ptr, ptr, i32, i32, ptr, ptr, i32, i32, ptr, ptr, ptr, ptr, ptr, ptr, ptr, ptr, i32, i32, [32 x i8], ptr, ptr, ptr, ptr, ptr, ptr, ptr, i64, %struct.crypto_ex_data_st, ptr, i32, i32, i32, i32, i16, ptr, i32, i64, ptr, ptr, ptr, ptr, ptr, ptr, i32, i32, ptr, ptr, i8, i8, i32 }
%struct.ssl_protocol_method_st = type { i8, ptr, ptr, ptr, ptr, ptr, ptr, ptr, ptr, ptr, ptr, ptr, i32, ptr, ptr }

; Function Attrs: nounwind uwtable
define hidden void @ssl_cipher_preference_list_free(ptr noundef %0) #0 {
  %2 = alloca ptr, align 8
  store ptr %0, ptr %2, align 8, !tbaa !78
  %3 = load ptr, ptr %2, align 8, !tbaa !78
  %4 = icmp eq ptr %3, null
  br i1 %4, label %5, label %6

5:                                                ; preds = %1
  br label %14

6:                                                ; preds = %1
  %7 = load ptr, ptr %2, align 8, !tbaa !78
  %8 = getelementptr inbounds nuw %struct.ssl_cipher_preference_list_st, ptr %7, i32 0, i32 0
  %9 = load ptr, ptr %8, align 8, !tbaa !47
  call void @sk_free(ptr noundef %9)
  %10 = load ptr, ptr %2, align 8, !tbaa !78
  %11 = getelementptr inbounds nuw %struct.ssl_cipher_preference_list_st, ptr %10, i32 0, i32 1
  %12 = load ptr, ptr %11, align 8, !tbaa !79
  call void @free(ptr noundef %12) #8
  %13 = load ptr, ptr %2, align 8, !tbaa !78
  call void @free(ptr noundef %13) #8
  br label %14

14:                                               ; preds = %6, %5
  ret void
}

; Function Attrs: nounwind uwtable
define hidden void @SSL_free(ptr noundef %0) #0 {
  %2 = alloca ptr, align 8
  %3 = alloca i32, align 4
  store ptr %0, ptr %2, align 8, !tbaa !80
  %4 = load ptr, ptr %2, align 8, !tbaa !80
  %5 = icmp eq ptr %4, null
  br i1 %5, label %6, label %7

6:                                                ; preds = %1
  br label %116

7:                                                ; preds = %1
  %8 = load ptr, ptr %2, align 8, !tbaa !80
  %9 = getelementptr inbounds nuw %struct.ssl_st, ptr %8, i32 0, i32 18
  %10 = load ptr, ptr %9, align 8, !tbaa !106
  call void @X509_VERIFY_PARAM_free(ptr noundef %10)
  %11 = load ptr, ptr %2, align 8, !tbaa !80
  %12 = load ptr, ptr %2, align 8, !tbaa !80
  %13 = getelementptr inbounds nuw %struct.ssl_st, ptr %12, i32 0, i32 33
  call void @CRYPTO_free_ex_data(ptr noundef @g_ex_data_class_ssl, ptr noundef %11, ptr noundef %13)
  %14 = load ptr, ptr %2, align 8, !tbaa !80
  %15 = getelementptr inbounds nuw %struct.ssl_st, ptr %14, i32 0, i32 6
  %16 = load ptr, ptr %15, align 8, !tbaa !127
  %17 = icmp ne ptr %16, null
  br i1 %17, label %18, label %40

18:                                               ; preds = %7
  %19 = load ptr, ptr %2, align 8, !tbaa !80
  %20 = getelementptr inbounds nuw %struct.ssl_st, ptr %19, i32 0, i32 6
  %21 = load ptr, ptr %20, align 8, !tbaa !127
  %22 = load ptr, ptr %2, align 8, !tbaa !80
  %23 = getelementptr inbounds nuw %struct.ssl_st, ptr %22, i32 0, i32 5
  %24 = load ptr, ptr %23, align 8, !tbaa !128
  %25 = icmp eq ptr %21, %24
  br i1 %25, label %26, label %33

26:                                               ; preds = %18
  %27 = load ptr, ptr %2, align 8, !tbaa !80
  %28 = getelementptr inbounds nuw %struct.ssl_st, ptr %27, i32 0, i32 5
  %29 = load ptr, ptr %28, align 8, !tbaa !128
  %30 = call ptr @BIO_pop(ptr noundef %29)
  %31 = load ptr, ptr %2, align 8, !tbaa !80
  %32 = getelementptr inbounds nuw %struct.ssl_st, ptr %31, i32 0, i32 5
  store ptr %30, ptr %32, align 8, !tbaa !128
  br label %33

33:                                               ; preds = %26, %18
  %34 = load ptr, ptr %2, align 8, !tbaa !80
  %35 = getelementptr inbounds nuw %struct.ssl_st, ptr %34, i32 0, i32 6
  %36 = load ptr, ptr %35, align 8, !tbaa !127
  %37 = call i32 @BIO_free(ptr noundef %36)
  %38 = load ptr, ptr %2, align 8, !tbaa !80
  %39 = getelementptr inbounds nuw %struct.ssl_st, ptr %38, i32 0, i32 6
  store ptr null, ptr %39, align 8, !tbaa !127
  br label %40

40:                                               ; preds = %33, %7
  call void @llvm.lifetime.start.p0(i64 4, ptr %3) #8
  %41 = load ptr, ptr %2, align 8, !tbaa !80
  %42 = getelementptr inbounds nuw %struct.ssl_st, ptr %41, i32 0, i32 5
  %43 = load ptr, ptr %42, align 8, !tbaa !128
  %44 = load ptr, ptr %2, align 8, !tbaa !80
  %45 = getelementptr inbounds nuw %struct.ssl_st, ptr %44, i32 0, i32 4
  %46 = load ptr, ptr %45, align 8, !tbaa !129
  %47 = icmp ne ptr %43, %46
  %48 = zext i1 %47 to i32
  store i32 %48, ptr %3, align 4, !tbaa !61
  %49 = load ptr, ptr %2, align 8, !tbaa !80
  %50 = getelementptr inbounds nuw %struct.ssl_st, ptr %49, i32 0, i32 4
  %51 = load ptr, ptr %50, align 8, !tbaa !129
  call void @BIO_free_all(ptr noundef %51)
  %52 = load i32, ptr %3, align 4, !tbaa !61
  %53 = icmp ne i32 %52, 0
  br i1 %53, label %54, label %58

54:                                               ; preds = %40
  %55 = load ptr, ptr %2, align 8, !tbaa !80
  %56 = getelementptr inbounds nuw %struct.ssl_st, ptr %55, i32 0, i32 5
  %57 = load ptr, ptr %56, align 8, !tbaa !128
  call void @BIO_free_all(ptr noundef %57)
  br label %58

58:                                               ; preds = %54, %40
  %59 = load ptr, ptr %2, align 8, !tbaa !80
  %60 = getelementptr inbounds nuw %struct.ssl_st, ptr %59, i32 0, i32 10
  %61 = load ptr, ptr %60, align 8, !tbaa !130
  call void @BUF_MEM_free(ptr noundef %61)
  %62 = load ptr, ptr %2, align 8, !tbaa !80
  %63 = getelementptr inbounds nuw %struct.ssl_st, ptr %62, i32 0, i32 19
  %64 = load ptr, ptr %63, align 8, !tbaa !131
  call void @ssl_cipher_preference_list_free(ptr noundef %64)
  %65 = load ptr, ptr %2, align 8, !tbaa !80
  %66 = getelementptr inbounds nuw %struct.ssl_st, ptr %65, i32 0, i32 20
  %67 = load ptr, ptr %66, align 8, !tbaa !132
  call void @sk_free(ptr noundef %67)
  %68 = load ptr, ptr %2, align 8, !tbaa !80
  %69 = call i32 @ssl_clear_bad_session(ptr noundef %68)
  %70 = load ptr, ptr %2, align 8, !tbaa !80
  %71 = getelementptr inbounds nuw %struct.ssl_st, ptr %70, i32 0, i32 25
  %72 = load ptr, ptr %71, align 8, !tbaa !133
  call void @SSL_SESSION_free(ptr noundef %72)
  %73 = load ptr, ptr %2, align 8, !tbaa !80
  %74 = getelementptr inbounds nuw %struct.ssl_st, ptr %73, i32 0, i32 21
  %75 = load ptr, ptr %74, align 8, !tbaa !96
  call void @ssl_cert_free(ptr noundef %75)
  %76 = load ptr, ptr %2, align 8, !tbaa !80
  %77 = getelementptr inbounds nuw %struct.ssl_st, ptr %76, i32 0, i32 40
  %78 = load ptr, ptr %77, align 8, !tbaa !134
  call void @free(ptr noundef %78) #8
  %79 = load ptr, ptr %2, align 8, !tbaa !80
  %80 = getelementptr inbounds nuw %struct.ssl_st, ptr %79, i32 0, i32 44
  %81 = load ptr, ptr %80, align 8, !tbaa !109
  call void @SSL_CTX_free(ptr noundef %81)
  %82 = load ptr, ptr %2, align 8, !tbaa !80
  %83 = getelementptr inbounds nuw %struct.ssl_st, ptr %82, i32 0, i32 43
  %84 = load ptr, ptr %83, align 8, !tbaa !111
  call void @free(ptr noundef %84) #8
  %85 = load ptr, ptr %2, align 8, !tbaa !80
  %86 = getelementptr inbounds nuw %struct.ssl_st, ptr %85, i32 0, i32 48
  %87 = load ptr, ptr %86, align 8, !tbaa !114
  call void @free(ptr noundef %87) #8
  %88 = load ptr, ptr %2, align 8, !tbaa !80
  %89 = getelementptr inbounds nuw %struct.ssl_st, ptr %88, i32 0, i32 47
  %90 = load ptr, ptr %89, align 8, !tbaa !126
  call void @EVP_PKEY_free(ptr noundef %90)
  %91 = load ptr, ptr %2, align 8, !tbaa !80
  %92 = getelementptr inbounds nuw %struct.ssl_st, ptr %91, i32 0, i32 28
  %93 = load ptr, ptr %92, align 8, !tbaa !121
  call void @free(ptr noundef %93) #8
  %94 = load ptr, ptr %2, align 8, !tbaa !80
  %95 = getelementptr inbounds nuw %struct.ssl_st, ptr %94, i32 0, i32 34
  %96 = load ptr, ptr %95, align 8, !tbaa !135
  call void @sk_pop_free(ptr noundef %96, ptr noundef @X509_NAME_free)
  %97 = load ptr, ptr %2, align 8, !tbaa !80
  %98 = getelementptr inbounds nuw %struct.ssl_st, ptr %97, i32 0, i32 45
  %99 = load ptr, ptr %98, align 8, !tbaa !136
  call void @sk_free(ptr noundef %99)
  %100 = load ptr, ptr %2, align 8, !tbaa !80
  %101 = getelementptr inbounds nuw %struct.ssl_st, ptr %100, i32 0, i32 3
  %102 = load ptr, ptr %101, align 8, !tbaa !117
  %103 = icmp ne ptr %102, null
  br i1 %103, label %104, label %111

104:                                              ; preds = %58
  %105 = load ptr, ptr %2, align 8, !tbaa !80
  %106 = getelementptr inbounds nuw %struct.ssl_st, ptr %105, i32 0, i32 3
  %107 = load ptr, ptr %106, align 8, !tbaa !117
  %108 = getelementptr inbounds nuw %struct.ssl_protocol_method_st, ptr %107, i32 0, i32 2
  %109 = load ptr, ptr %108, align 8, !tbaa !137
  %110 = load ptr, ptr %2, align 8, !tbaa !80
  call void %109(ptr noundef %110)
  br label %111

111:                                              ; preds = %104, %58
  %112 = load ptr, ptr %2, align 8, !tbaa !80
  %113 = getelementptr inbounds nuw %struct.ssl_st, ptr %112, i32 0, i32 31
  %114 = load ptr, ptr %113, align 8, !tbaa !108
  call void @SSL_CTX_free(ptr noundef %114)
  %115 = load ptr, ptr %2, align 8, !tbaa !80
  call void @free(ptr noundef %115) #8
  call void @llvm.lifetime.end.p0(i64 4, ptr %3) #8
  br label %116

116:                                              ; preds = %111, %6
  ret void
}