; Function Attrs: nounwind uwtable
define hidden void @SSL_free(ptr noundef %0) local_unnamed_addr #0 {
  %2 = icmp eq ptr %0, null
  br i1 %2, label %66, label %3

3:                                                ; preds = %1
  %4 = getelementptr inbounds nuw i8, ptr %0, i64 112
  %5 = load ptr, ptr %4, align 8, !tbaa !95
  tail call void @X509_VERIFY_PARAM_free(ptr noundef %5) #21
  %6 = getelementptr inbounds nuw i8, ptr %0, i64 248
  tail call void @CRYPTO_free_ex_data(ptr noundef nonnull @g_ex_data_class_ssl, ptr noundef nonnull %0, ptr noundef nonnull %6) #21
  %7 = getelementptr inbounds nuw i8, ptr %0, i64 32
  %8 = load ptr, ptr %7, align 8, !tbaa !116
  %.not = icmp eq ptr %8, null
  br i1 %.not, label %18, label %9

9:                                                ; preds = %3
  %10 = getelementptr inbounds nuw i8, ptr %0, i64 24
  %11 = load ptr, ptr %10, align 8, !tbaa !117
  %12 = icmp eq ptr %8, %11
  br i1 %12, label %13, label %15

13:                                               ; preds = %9
  %14 = tail call ptr @BIO_pop(ptr noundef %11) #21
  store ptr %14, ptr %10, align 8, !tbaa !117
  %.pre = load ptr, ptr %7, align 8, !tbaa !116
  br label %15

15:                                               ; preds = %13, %9
  %16 = phi ptr [ %.pre, %13 ], [ %8, %9 ]
  %17 = tail call i32 @BIO_free(ptr noundef %16) #21
  store ptr null, ptr %7, align 8, !tbaa !116
  br label %18

18:                                               ; preds = %15, %3
  %19 = getelementptr inbounds nuw i8, ptr %0, i64 24
  %20 = load ptr, ptr %19, align 8, !tbaa !117
  %21 = getelementptr inbounds nuw i8, ptr %0, i64 16
  %22 = load ptr, ptr %21, align 8, !tbaa !118
  %.not37 = icmp eq ptr %20, %22
  tail call void @BIO_free_all(ptr noundef %22) #21
  br i1 %.not37, label %25, label %23

23:                                               ; preds = %18
  %24 = load ptr, ptr %19, align 8, !tbaa !117
  tail call void @BIO_free_all(ptr noundef %24) #21
  br label %25

25:                                               ; preds = %23, %18
  %26 = getelementptr inbounds nuw i8, ptr %0, i64 56
  %27 = load ptr, ptr %26, align 8, !tbaa !119
  tail call void @BUF_MEM_free(ptr noundef %27) #21
  %28 = getelementptr inbounds nuw i8, ptr %0, i64 120
  %29 = load ptr, ptr %28, align 8, !tbaa !120
  %30 = icmp eq ptr %29, null
  br i1 %30, label %ssl_cipher_preference_list_free.exit, label %31

31:                                               ; preds = %25
  %32 = load ptr, ptr %29, align 8, !tbaa !43
  tail call void @sk_free(ptr noundef %32) #21
  %33 = getelementptr inbounds nuw i8, ptr %29, i64 8
  %34 = load ptr, ptr %33, align 8, !tbaa !57
  tail call void @free(ptr noundef %34) #21
  tail call void @free(ptr noundef nonnull %29) #21
  br label %ssl_cipher_preference_list_free.exit

ssl_cipher_preference_list_free.exit:             ; preds = %25, %31
  %35 = getelementptr inbounds nuw i8, ptr %0, i64 128
  %36 = load ptr, ptr %35, align 8, !tbaa !121
  tail call void @sk_free(ptr noundef %36) #21
  %37 = tail call i32 @ssl_clear_bad_session(ptr noundef nonnull %0) #21
  %38 = getelementptr inbounds nuw i8, ptr %0, i64 184
  %39 = load ptr, ptr %38, align 8, !tbaa !122
  tail call void @SSL_SESSION_free(ptr noundef %39) #21
  %40 = getelementptr inbounds nuw i8, ptr %0, i64 136
  %41 = load ptr, ptr %40, align 8, !tbaa !85
  tail call void @ssl_cert_free(ptr noundef %41) #21
  %42 = getelementptr inbounds nuw i8, ptr %0, i64 288
  %43 = load ptr, ptr %42, align 8, !tbaa !123
  tail call void @free(ptr noundef %43) #21
  %44 = getelementptr inbounds nuw i8, ptr %0, i64 320
  %45 = load ptr, ptr %44, align 8, !tbaa !98
  tail call void @SSL_CTX_free(ptr noundef %45)
  %46 = getelementptr inbounds nuw i8, ptr %0, i64 312
  %47 = load ptr, ptr %46, align 8, !tbaa !100
  tail call void @free(ptr noundef %47) #21
  %48 = getelementptr inbounds nuw i8, ptr %0, i64 352
  %49 = load ptr, ptr %48, align 8, !tbaa !103
  tail call void @free(ptr noundef %49) #21
  %50 = getelementptr inbounds nuw i8, ptr %0, i64 344
  %51 = load ptr, ptr %50, align 8, !tbaa !115
  tail call void @EVP_PKEY_free(ptr noundef %51) #21
  %52 = getelementptr inbounds nuw i8, ptr %0, i64 208
  %53 = load ptr, ptr %52, align 8, !tbaa !110
  tail call void @free(ptr noundef %53) #21
  %54 = getelementptr inbounds nuw i8, ptr %0, i64 256
  %55 = load ptr, ptr %54, align 8, !tbaa !124
  tail call void @sk_pop_free(ptr noundef %55, ptr noundef nonnull @X509_NAME_free) #21
  %56 = getelementptr inbounds nuw i8, ptr %0, i64 328
  %57 = load ptr, ptr %56, align 8, !tbaa !125
  tail call void @sk_free(ptr noundef %57) #21
  %58 = getelementptr inbounds nuw i8, ptr %0, i64 8
  %59 = load ptr, ptr %58, align 8, !tbaa !106
  %.not38 = icmp eq ptr %59, null
  br i1 %.not38, label %63, label %60

60:                                               ; preds = %ssl_cipher_preference_list_free.exit
  %61 = getelementptr inbounds nuw i8, ptr %59, i64 16
  %62 = load ptr, ptr %61, align 8, !tbaa !126
  tail call void %62(ptr noundef nonnull %0) #21
  br label %63

63:                                               ; preds = %60, %ssl_cipher_preference_list_free.exit
  %64 = getelementptr inbounds nuw i8, ptr %0, i64 232
  %65 = load ptr, ptr %64, align 8, !tbaa !97
  tail call void @SSL_CTX_free(ptr noundef %65)
  tail call void @free(ptr noundef nonnull %0) #21
  br label %66

66:                                               ; preds = %1, %63
  ret void
}